target datalayout = "e-m:e-p270:32:32-p271:32:32-p272:64:64-i64:64-i128:128-f80:128-n8:16:32:64-S128"
target triple = "x86_64-pc-linux-gnu"

%struct.traceobj_arg = type { i32, i32, i64, i64, ptr, ptr, ptr }

; Function Attrs: nounwind sspstrong uwtable
define internal void @allocation_info_tracer_free(ptr noundef %0) #0 {
  %2 = alloca ptr, align 8
  %3 = alloca ptr, align 8
  store ptr %0, ptr %2, align 8, !tbaa !32
  call void @llvm.lifetime.start.p0(i64 8, ptr %3) #17
  %4 = load ptr, ptr %2, align 8, !tbaa !32
  store ptr %4, ptr %3, align 8, !tbaa !10
  %5 = load ptr, ptr %3, align 8, !tbaa !10
  %6 = getelementptr inbounds nuw %struct.traceobj_arg, ptr %5, i32 0, i32 4
  %7 = load ptr, ptr %6, align 8, !tbaa !13
  %8 = call i32 @rb_st_foreach(ptr noundef %7, ptr noundef @free_values_i, i64 noundef 0)
  %9 = load ptr, ptr %3, align 8, !tbaa !10
  %10 = getelementptr inbounds nuw %struct.traceobj_arg, ptr %9, i32 0, i32 4
  %11 = load ptr, ptr %10, align 8, !tbaa !13
  call void @rb_st_free_table(ptr noundef %11)
  %12 = load ptr, ptr %3, align 8, !tbaa !10
  %13 = getelementptr inbounds nuw %struct.traceobj_arg, ptr %12, i32 0, i32 5
  %14 = load ptr, ptr %13, align 8, !tbaa !20
  %15 = call i32 @rb_st_foreach(ptr noundef %14, ptr noundef @free_keys_i, i64 noundef 0)
  %16 = load ptr, ptr %3, align 8, !tbaa !10
  %17 = getelementptr inbounds nuw %struct.traceobj_arg, ptr %16, i32 0, i32 5
  %18 = load ptr, ptr %17, align 8, !tbaa !20
  call void @rb_st_free_table(ptr noundef %18)
  %19 = load ptr, ptr %3, align 8, !tbaa !10
  call void @ruby_xfree(ptr noundef %19)
  call void @llvm.lifetime.end.p0(i64 8, ptr %3) #17
  ret void
}