; Function Attrs: nounwind sspstrong uwtable
define internal void @allocation_info_tracer_free(ptr noundef %0) #0 {
  %2 = getelementptr inbounds nuw i8, ptr %0, i64 24
  %3 = load ptr, ptr %2, align 8, !tbaa !11
  %4 = tail call i32 @rb_st_foreach(ptr noundef %3, ptr noundef nonnull @free_values_i, i64 noundef 0) #10
  %5 = load ptr, ptr %2, align 8, !tbaa !11
  tail call void @rb_st_free_table(ptr noundef %5) #10
  %6 = getelementptr inbounds nuw i8, ptr %0, i64 32
  %7 = load ptr, ptr %6, align 8, !tbaa !24
  %8 = tail call i32 @rb_st_foreach(ptr noundef %7, ptr noundef nonnull @free_keys_i, i64 noundef 0) #10
  %9 = load ptr, ptr %6, align 8, !tbaa !24
  tail call void @rb_st_free_table(ptr noundef %9) #10
  tail call void @ruby_xfree(ptr noundef %0) #10
  ret void
}